target datalayout = "e-m:e-p270:32:32-p271:32:32-p272:64:64-i64:64-i128:128-f80:128-n8:16:32:64-S128"
target triple = "x86_64-pc-linux-gnu"

%struct.AVTextFormatContext = type { ptr, ptr, ptr, ptr, ptr, ptr, i32, i32, [12 x i32], [12 x [100 x i32]], [12 x ptr], [12 x %struct.AVBPrint], i32, i32, i32, i32, i32, ptr, i32, ptr, i32 }
%struct.AVBPrint = type { ptr, i32, i32, i32, [1 x i8], [1000 x i8] }
%struct.XMLContext = type { ptr, i32, i32, i32, i32 }
%struct.AVTextFormatSection = type { i32, ptr, i32, [12 x i32], ptr, ptr, ptr, ptr, i32, ptr, ptr, ptr, ptr }
%struct.AVTextWriterContext = type { ptr, ptr, ptr, ptr }
%struct.AVTextWriter = type { ptr, i32, ptr, ptr, ptr, ptr, ptr, ptr }

@.str.18 = private unnamed_addr constant [4 x i8] c"%*c\00", align 1
@.str.22 = private unnamed_addr constant [36 x i8] c"Invalid section access at level %d\0A\00", align 1
@.str.26 = private unnamed_addr constant [13 x i8] c"<%s key=\22%s\22\00", align 1
@.str.27 = private unnamed_addr constant [16 x i8] c" value=\22%ld\22/>\0A\00", align 1
@.str.28 = private unnamed_addr constant [15 x i8] c" value=\22%s\22/>\0A\00", align 1
@.str.29 = private unnamed_addr constant [9 x i8] c"%s=\22%ld\22\00", align 1
@.str.30 = private unnamed_addr constant [8 x i8] c"%s=\22%s\22\00", align 1

; Function Attrs: inlinehint nounwind uwtable
define internal void @writer_w8(ptr noundef %0, i32 noundef %1) #2 {
  %3 = alloca ptr, align 8
  %4 = alloca i32, align 4
  store ptr %0, ptr %3, align 8, !tbaa !4
  store i32 %1, ptr %4, align 4, !tbaa !33
  %5 = load ptr, ptr %3, align 8, !tbaa !4
  %6 = getelementptr inbounds nuw %struct.AVTextFormatContext, ptr %5, i32 0, i32 2
  %7 = load ptr, ptr %6, align 8, !tbaa !41
  %8 = getelementptr inbounds nuw %struct.AVTextWriterContext, ptr %7, i32 0, i32 1
  %9 = load ptr, ptr %8, align 8, !tbaa !42
  %10 = getelementptr inbounds nuw %struct.AVTextWriter, ptr %9, i32 0, i32 5
  %11 = load ptr, ptr %10, align 8, !tbaa !48
  %12 = load ptr, ptr %3, align 8, !tbaa !4
  %13 = getelementptr inbounds nuw %struct.AVTextFormatContext, ptr %12, i32 0, i32 2
  %14 = load ptr, ptr %13, align 8, !tbaa !41
  %15 = load i32, ptr %4, align 4, !tbaa !33
  call void %11(ptr noundef %14, i32 noundef %15)
  ret void
}

; Function Attrs: inlinehint nounwind uwtable
define internal ptr @tf_get_section(ptr noundef %0, i32 noundef %1) #2 {
  %3 = alloca ptr, align 8
  %4 = alloca ptr, align 8
  %5 = alloca i32, align 4
  store ptr %0, ptr %4, align 8, !tbaa !4
  store i32 %1, ptr %5, align 4, !tbaa !33
  %6 = load ptr, ptr %4, align 8, !tbaa !4
  %7 = icmp ne ptr %6, null
  br i1 %7, label %8, label %22

8:                                                ; preds = %2
  %9 = load i32, ptr %5, align 4, !tbaa !33
  %10 = icmp slt i32 %9, 0
  br i1 %10, label %22, label %11

11:                                               ; preds = %8
  %12 = load i32, ptr %5, align 4, !tbaa !33
  %13 = icmp sge i32 %12, 12
  br i1 %13, label %22, label %14

14:                                               ; preds = %11
  %15 = load ptr, ptr %4, align 8, !tbaa !4
  %16 = getelementptr inbounds nuw %struct.AVTextFormatContext, ptr %15, i32 0, i32 10
  %17 = load i32, ptr %5, align 4, !tbaa !33
  %18 = sext i32 %17 to i64
  %19 = getelementptr inbounds [12 x ptr], ptr %16, i64 0, i64 %18
  %20 = load ptr, ptr %19, align 8, !tbaa !27
  %21 = icmp ne ptr %20, null
  br i1 %21, label %29, label %22

22:                                               ; preds = %14, %11, %8, %2
  %23 = load ptr, ptr %4, align 8, !tbaa !4
  %24 = icmp ne ptr %23, null
  br i1 %24, label %25, label %28

25:                                               ; preds = %22
  %26 = load ptr, ptr %4, align 8, !tbaa !4
  %27 = load i32, ptr %5, align 4, !tbaa !33
  call void (ptr, i32, ptr, ...) @av_log(ptr noundef %26, i32 noundef 16, ptr noundef @.str.22, i32 noundef %27)
  br label %28

28:                                               ; preds = %25, %22
  store ptr null, ptr %3, align 8
  br label %36

29:                                               ; preds = %14
  %30 = load ptr, ptr %4, align 8, !tbaa !4
  %31 = getelementptr inbounds nuw %struct.AVTextFormatContext, ptr %30, i32 0, i32 10
  %32 = load i32, ptr %5, align 4, !tbaa !33
  %33 = sext i32 %32 to i64
  %34 = getelementptr inbounds [12 x ptr], ptr %31, i64 0, i64 %33
  %35 = load ptr, ptr %34, align 8, !tbaa !27
  store ptr %35, ptr %3, align 8
  br label %36

36:                                               ; preds = %29, %28
  %37 = load ptr, ptr %3, align 8
  ret ptr %37
}

; Function Attrs: nounwind uwtable
define internal void @xml_print_value(ptr noundef %0, ptr noundef %1, ptr noundef %2, i64 noundef %3, i32 noundef %4) #1 {
  %6 = alloca ptr, align 8
  %7 = alloca ptr, align 8
  %8 = alloca ptr, align 8
  %9 = alloca i64, align 8
  %10 = alloca i32, align 4
  %11 = alloca %struct.AVBPrint, align 8
  %12 = alloca ptr, align 8
  %13 = alloca ptr, align 8
  %14 = alloca i32, align 4
  store ptr %0, ptr %6, align 8, !tbaa !4
  store ptr %1, ptr %7, align 8, !tbaa !28
  store ptr %2, ptr %8, align 8, !tbaa !28
  store i64 %3, ptr %9, align 8, !tbaa !39
  store i32 %4, ptr %10, align 4, !tbaa !33
  call void @llvm.lifetime.start.p0(i64 1024, ptr %11) #6
  call void @llvm.lifetime.start.p0(i64 8, ptr %12) #6
  %15 = load ptr, ptr %6, align 8, !tbaa !4
  %16 = getelementptr inbounds nuw %struct.AVTextFormatContext, ptr %15, i32 0, i32 4
  %17 = load ptr, ptr %16, align 8, !tbaa !9
  store ptr %17, ptr %12, align 8, !tbaa !18
  call void @llvm.lifetime.start.p0(i64 8, ptr %13) #6
  %18 = load ptr, ptr %6, align 8, !tbaa !4
  %19 = load ptr, ptr %6, align 8, !tbaa !4
  %20 = getelementptr inbounds nuw %struct.AVTextFormatContext, ptr %19, i32 0, i32 7
  %21 = load i32, ptr %20, align 4, !tbaa !26
  %22 = call ptr @tf_get_section(ptr noundef %18, i32 noundef %21)
  store ptr %22, ptr %13, align 8, !tbaa !27
  %23 = load ptr, ptr %13, align 8, !tbaa !27
  %24 = icmp ne ptr %23, null
  br i1 %24, label %26, label %25

25:                                               ; preds = %5
  store i32 1, ptr %14, align 4
  br label %92

26:                                               ; preds = %5
  call void @av_bprint_init(ptr noundef %11, i32 noundef 1, i32 noundef -1)
  %27 = load ptr, ptr %13, align 8, !tbaa !27
  %28 = getelementptr inbounds nuw %struct.AVTextFormatSection, ptr %27, i32 0, i32 2
  %29 = load i32, ptr %28, align 8, !tbaa !30
  %30 = and i32 %29, 4
  %31 = icmp ne i32 %30, 0
  br i1 %31, label %32, label %64

32:                                               ; preds = %26
  %33 = load ptr, ptr %12, align 8, !tbaa !18
  %34 = getelementptr inbounds nuw %struct.XMLContext, ptr %33, i32 0, i32 2
  %35 = load i32, ptr %34, align 4, !tbaa !34
  %36 = add nsw i32 %35, 1
  store i32 %36, ptr %34, align 4, !tbaa !34
  %37 = load ptr, ptr %6, align 8, !tbaa !4
  %38 = load ptr, ptr %12, align 8, !tbaa !18
  %39 = getelementptr inbounds nuw %struct.XMLContext, ptr %38, i32 0, i32 2
  %40 = load i32, ptr %39, align 4, !tbaa !34
  %41 = mul nsw i32 %40, 4
  call void (ptr, ptr, ...) @writer_printf(ptr noundef %37, ptr noundef @.str.18, i32 noundef %41, i32 noundef 32)
  %42 = load ptr, ptr %7, align 8, !tbaa !28
  call void @av_bprint_escape(ptr noundef %11, ptr noundef %42, ptr noundef null, i32 noundef 3, i32 noundef 8)
  %43 = load ptr, ptr %6, align 8, !tbaa !4
  %44 = load ptr, ptr %13, align 8, !tbaa !27
  %45 = getelementptr inbounds nuw %struct.AVTextFormatSection, ptr %44, i32 0, i32 4
  %46 = load ptr, ptr %45, align 8, !tbaa !49
  %47 = getelementptr inbounds nuw %struct.AVBPrint, ptr %11, i32 0, i32 0
  %48 = load ptr, ptr %47, align 8, !tbaa !37
  call void (ptr, ptr, ...) @writer_printf(ptr noundef %43, ptr noundef @.str.26, ptr noundef %46, ptr noundef %48)
  call void @av_bprint_clear(ptr noundef %11)
  %49 = load i32, ptr %10, align 4, !tbaa !33
  %50 = icmp ne i32 %49, 0
  br i1 %50, label %51, label %54

51:                                               ; preds = %32
  %52 = load ptr, ptr %6, align 8, !tbaa !4
  %53 = load i64, ptr %9, align 8, !tbaa !39
  call void (ptr, ptr, ...) @writer_printf(ptr noundef %52, ptr noundef @.str.27, i64 noundef %53)
  br label %59

54:                                               ; preds = %32
  %55 = load ptr, ptr %8, align 8, !tbaa !28
  call void @av_bprint_escape(ptr noundef %11, ptr noundef %55, ptr noundef null, i32 noundef 3, i32 noundef 8)
  %56 = load ptr, ptr %6, align 8, !tbaa !4
  %57 = getelementptr inbounds nuw %struct.AVBPrint, ptr %11, i32 0, i32 0
  %58 = load ptr, ptr %57, align 8, !tbaa !37
  call void (ptr, ptr, ...) @writer_printf(ptr noundef %56, ptr noundef @.str.28, ptr noundef %58)
  br label %59

59:                                               ; preds = %54, %51
  %60 = load ptr, ptr %12, align 8, !tbaa !18
  %61 = getelementptr inbounds nuw %struct.XMLContext, ptr %60, i32 0, i32 2
  %62 = load i32, ptr %61, align 4, !tbaa !34
  %63 = add nsw i32 %62, -1
  store i32 %63, ptr %61, align 4, !tbaa !34
  br label %90

64:                                               ; preds = %26
  %65 = load ptr, ptr %6, align 8, !tbaa !4
  %66 = getelementptr inbounds nuw %struct.AVTextFormatContext, ptr %65, i32 0, i32 8
  %67 = load ptr, ptr %6, align 8, !tbaa !4
  %68 = getelementptr inbounds nuw %struct.AVTextFormatContext, ptr %67, i32 0, i32 7
  %69 = load i32, ptr %68, align 4, !tbaa !26
  %70 = sext i32 %69 to i64
  %71 = getelementptr inbounds [12 x i32], ptr %66, i64 0, i64 %70
  %72 = load i32, ptr %71, align 4, !tbaa !33
  %73 = icmp ne i32 %72, 0
  br i1 %73, label %74, label %76

74:                                               ; preds = %64
  %75 = load ptr, ptr %6, align 8, !tbaa !4
  call void @writer_w8(ptr noundef %75, i32 noundef 32)
  br label %76

76:                                               ; preds = %74, %64
  %77 = load i32, ptr %10, align 4, !tbaa !33
  %78 = icmp ne i32 %77, 0
  br i1 %78, label %79, label %83

79:                                               ; preds = %76
  %80 = load ptr, ptr %6, align 8, !tbaa !4
  %81 = load ptr, ptr %7, align 8, !tbaa !28
  %82 = load i64, ptr %9, align 8, !tbaa !39
  call void (ptr, ptr, ...) @writer_printf(ptr noundef %80, ptr noundef @.str.29, ptr noundef %81, i64 noundef %82)
  br label %89

83:                                               ; preds = %76
  %84 = load ptr, ptr %8, align 8, !tbaa !28
  call void @av_bprint_escape(ptr noundef %11, ptr noundef %84, ptr noundef null, i32 noundef 3, i32 noundef 8)
  %85 = load ptr, ptr %6, align 8, !tbaa !4
  %86 = load ptr, ptr %7, align 8, !tbaa !28
  %87 = getelementptr inbounds nuw %struct.AVBPrint, ptr %11, i32 0, i32 0
  %88 = load ptr, ptr %87, align 8, !tbaa !37
  call void (ptr, ptr, ...) @writer_printf(ptr noundef %85, ptr noundef @.str.30, ptr noundef %86, ptr noundef %88)
  br label %89

89:                                               ; preds = %83, %79
  br label %90

90:                                               ; preds = %89, %59
  %91 = call i32 @av_bprint_finalize(ptr noundef %11, ptr noundef null)
  store i32 0, ptr %14, align 4
  br label %92

92:                                               ; preds = %90, %25
  call void @llvm.lifetime.end.p0(i64 8, ptr %13) #6
  call void @llvm.lifetime.end.p0(i64 8, ptr %12) #6
  call void @llvm.lifetime.end.p0(i64 1024, ptr %11) #6
  %93 = load i32, ptr %14, align 4
  switch i32 %93, label %95 [
    i32 0, label %94
    i32 1, label %94
  ]

94:                                               ; preds = %92, %92
  ret void

95:                                               ; preds = %92
  unreachable
}