; Function Attrs: nounwind uwtable
define internal fastcc void @xml_print_value(ptr noundef %0, ptr noundef %1, ptr noundef %2, i64 noundef %3, i32 noundef range(i32 0, 2) %4) unnamed_addr #1 {
  %6 = alloca %struct.AVBPrint, align 8
  call void @llvm.lifetime.start.p0(i64 1024, ptr nonnull %6) #6
  %7 = getelementptr inbounds nuw i8, ptr %0, i64 32
  %8 = load ptr, ptr %7, align 8, !tbaa !4
  %9 = getelementptr inbounds nuw i8, ptr %0, i64 52
  %10 = load i32, ptr %9, align 4, !tbaa !21
  %11 = icmp eq ptr %0, null
  %12 = icmp ugt i32 %10, 11
  %or.cond3.i = or i1 %11, %12
  br i1 %or.cond3.i, label %tf_get_section.exit.thread, label %13

13:                                               ; preds = %5
  %14 = getelementptr inbounds nuw i8, ptr %0, i64 4904
  %15 = zext nneg i32 %10 to i64
  %16 = getelementptr inbounds nuw [12 x ptr], ptr %14, i64 0, i64 %15
  %17 = load ptr, ptr %16, align 8, !tbaa !22
  %.not.i = icmp eq ptr %17, null
  br i1 %.not.i, label %tf_get_section.exit.thread, label %tf_get_section.exit

tf_get_section.exit.thread:                       ; preds = %13, %5
  tail call void (ptr, i32, ptr, ...) @av_log(ptr noundef nonnull %0, i32 noundef 16, ptr noundef nonnull @.str.22, i32 noundef %10) #6
  br label %53

tf_get_section.exit:                              ; preds = %13
  call void @av_bprint_init(ptr noundef nonnull %6, i32 noundef 1, i32 noundef -1) #6
  %18 = getelementptr inbounds nuw i8, ptr %17, i64 16
  %19 = load i32, ptr %18, align 8, !tbaa !30
  %20 = and i32 %19, 4
  %.not26 = icmp eq i32 %20, 0
  br i1 %.not26, label %35, label %21

21:                                               ; preds = %tf_get_section.exit
  %22 = getelementptr inbounds nuw i8, ptr %8, i64 12
  %23 = load i32, ptr %22, align 4, !tbaa !35
  %24 = add nsw i32 %23, 1
  store i32 %24, ptr %22, align 4, !tbaa !35
  %25 = shl nsw i32 %24, 2
  call void (ptr, ptr, ...) @writer_printf(ptr noundef nonnull %0, ptr noundef nonnull @.str.18, i32 noundef %25, i32 noundef 32)
  call void @av_bprint_escape(ptr noundef nonnull %6, ptr noundef %1, ptr noundef null, i32 noundef 3, i32 noundef 8) #6
  %26 = getelementptr inbounds nuw i8, ptr %17, i64 72
  %27 = load ptr, ptr %26, align 8, !tbaa !41
  %28 = load ptr, ptr %6, align 8, !tbaa !38
  call void (ptr, ptr, ...) @writer_printf(ptr noundef nonnull %0, ptr noundef nonnull @.str.26, ptr noundef %27, ptr noundef %28)
  call void @av_bprint_clear(ptr noundef nonnull %6) #6
  %.not29 = icmp eq i32 %4, 0
  br i1 %.not29, label %30, label %29

29:                                               ; preds = %21
  call void (ptr, ptr, ...) @writer_printf(ptr noundef nonnull %0, ptr noundef nonnull @.str.27, i64 noundef %3)
  br label %32

30:                                               ; preds = %21
  call void @av_bprint_escape(ptr noundef nonnull %6, ptr noundef %2, ptr noundef null, i32 noundef 3, i32 noundef 8) #6
  %31 = load ptr, ptr %6, align 8, !tbaa !38
  call void (ptr, ptr, ...) @writer_printf(ptr noundef nonnull %0, ptr noundef nonnull @.str.28, ptr noundef %31)
  br label %32

32:                                               ; preds = %30, %29
  %33 = load i32, ptr %22, align 4, !tbaa !35
  %34 = add nsw i32 %33, -1
  store i32 %34, ptr %22, align 4, !tbaa !35
  br label %51

35:                                               ; preds = %tf_get_section.exit
  %36 = getelementptr inbounds nuw i8, ptr %0, i64 56
  %37 = load i32, ptr %9, align 4, !tbaa !21
  %38 = sext i32 %37 to i64
  %39 = getelementptr inbounds [12 x i32], ptr %36, i64 0, i64 %38
  %40 = load i32, ptr %39, align 4, !tbaa !33
  %.not27 = icmp eq i32 %40, 0
  br i1 %.not27, label %47, label %41

41:                                               ; preds = %35
  %42 = getelementptr i8, ptr %0, i64 16
  %.val = load ptr, ptr %42, align 8, !tbaa !23
  %43 = getelementptr inbounds nuw i8, ptr %.val, i64 8
  %44 = load ptr, ptr %43, align 8, !tbaa !24
  %45 = getelementptr inbounds nuw i8, ptr %44, i64 40
  %46 = load ptr, ptr %45, align 8, !tbaa !34
  call void %46(ptr noundef %.val, i32 noundef 32) #6
  br label %47

47:                                               ; preds = %41, %35
  %.not28 = icmp eq i32 %4, 0
  br i1 %.not28, label %49, label %48

48:                                               ; preds = %47
  call void (ptr, ptr, ...) @writer_printf(ptr noundef nonnull %0, ptr noundef nonnull @.str.29, ptr noundef %1, i64 noundef %3)
  br label %51

49:                                               ; preds = %47
  call void @av_bprint_escape(ptr noundef nonnull %6, ptr noundef %2, ptr noundef null, i32 noundef 3, i32 noundef 8) #6
  %50 = load ptr, ptr %6, align 8, !tbaa !38
  call void (ptr, ptr, ...) @writer_printf(ptr noundef nonnull %0, ptr noundef nonnull @.str.30, ptr noundef %1, ptr noundef %50)
  br label %51

51:                                               ; preds = %48, %49, %32
  %52 = call i32 @av_bprint_finalize(ptr noundef nonnull %6, ptr noundef null) #6
  br label %53

53:                                               ; preds = %tf_get_section.exit.thread, %51
  call void @llvm.lifetime.end.p0(i64 1024, ptr nonnull %6) #6
  ret void
}